target datalayout = "e-m:e-p270:32:32-p271:32:32-p272:64:64-i64:64-i128:128-f80:128-n8:16:32:64-S128"
target triple = "x86_64-unknown-linux-gnu"

%struct.ConnectionKey = type <{ %struct.in_addr, %struct.in_addr, i16, i16, i8 }>
%struct.in_addr = type { i32 }
%struct.Packet = type { ptr, %union.anon, ptr, i32, i64, i32, i32, i32, i32, i8, i16, i16, i8 }
%union.anon = type { ptr }
%struct.ip = type { i8, i8, i16, i16, i16, i8, i8, i16, %struct.in_addr, %struct.in_addr }

; Function Attrs: nounwind sspstrong uwtable
define dso_local void @extract_ip_and_port(i32 noundef %tmp_ports, ptr noundef %key, ptr noundef %pkt, i1 noundef zeroext %reverse) #0 {
entry:
  %tmp_ports.addr = alloca i32, align 4
  %key.addr = alloca ptr, align 8
  %pkt.addr = alloca ptr, align 8
  %reverse.addr = alloca i8, align 1
  store i32 %tmp_ports, ptr %tmp_ports.addr, align 4
  store ptr %key, ptr %key.addr, align 8
  store ptr %pkt, ptr %pkt.addr, align 8
  %frombool = zext i1 %reverse to i8
  store i8 %frombool, ptr %reverse.addr, align 1
  %0 = load i8, ptr %reverse.addr, align 1
  %tobool = trunc i8 %0 to i1
  br i1 %tobool, label %if.then, label %if.else

if.then:                                          ; preds = %entry
  %1 = load ptr, ptr %key.addr, align 8
  %src = getelementptr inbounds %struct.ConnectionKey, ptr %1, i32 0, i32 0
  %2 = load ptr, ptr %pkt.addr, align 8
  %3 = getelementptr inbounds %struct.Packet, ptr %2, i32 0, i32 1
  %4 = load ptr, ptr %3, align 8
  %ip_dst = getelementptr inbounds %struct.ip, ptr %4, i32 0, i32 9
  call void @llvm.memcpy.p0.p0.i64(ptr align 1 %src, ptr align 1 %ip_dst, i64 4, i1 false)
  %5 = load ptr, ptr %key.addr, align 8
  %dst = getelementptr inbounds %struct.ConnectionKey, ptr %5, i32 0, i32 1
  %6 = load ptr, ptr %pkt.addr, align 8
  %7 = getelementptr inbounds %struct.Packet, ptr %6, i32 0, i32 1
  %8 = load ptr, ptr %7, align 8
  %ip_src = getelementptr inbounds %struct.ip, ptr %8, i32 0, i32 8
  call void @llvm.memcpy.p0.p0.i64(ptr align 1 %dst, ptr align 1 %ip_src, i64 4, i1 false)
  %9 = load i32, ptr %tmp_ports.addr, align 4
  %and = and i32 %9, 65535
  %conv = trunc i32 %and to i16
  %call = call zeroext i16 @ntohs(i16 noundef zeroext %conv) #12
  %10 = load ptr, ptr %key.addr, align 8
  %src_port = getelementptr inbounds %struct.ConnectionKey, ptr %10, i32 0, i32 2
  store i16 %call, ptr %src_port, align 1
  %11 = load i32, ptr %tmp_ports.addr, align 4
  %shr = lshr i32 %11, 16
  %conv1 = trunc i32 %shr to i16
  %call2 = call zeroext i16 @ntohs(i16 noundef zeroext %conv1) #12
  %12 = load ptr, ptr %key.addr, align 8
  %dst_port = getelementptr inbounds %struct.ConnectionKey, ptr %12, i32 0, i32 3
  store i16 %call2, ptr %dst_port, align 1
  br label %if.end

if.else:                                          ; preds = %entry
  %13 = load ptr, ptr %key.addr, align 8
  %src3 = getelementptr inbounds %struct.ConnectionKey, ptr %13, i32 0, i32 0
  %14 = load ptr, ptr %pkt.addr, align 8
  %15 = getelementptr inbounds %struct.Packet, ptr %14, i32 0, i32 1
  %16 = load ptr, ptr %15, align 8
  %ip_src4 = getelementptr inbounds %struct.ip, ptr %16, i32 0, i32 8
  call void @llvm.memcpy.p0.p0.i64(ptr align 1 %src3, ptr align 1 %ip_src4, i64 4, i1 false)
  %17 = load ptr, ptr %key.addr, align 8
  %dst5 = getelementptr inbounds %struct.ConnectionKey, ptr %17, i32 0, i32 1
  %18 = load ptr, ptr %pkt.addr, align 8
  %19 = getelementptr inbounds %struct.Packet, ptr %18, i32 0, i32 1
  %20 = load ptr, ptr %19, align 8
  %ip_dst6 = getelementptr inbounds %struct.ip, ptr %20, i32 0, i32 9
  call void @llvm.memcpy.p0.p0.i64(ptr align 1 %dst5, ptr align 1 %ip_dst6, i64 4, i1 false)
  %21 = load i32, ptr %tmp_ports.addr, align 4
  %shr7 = lshr i32 %21, 16
  %conv8 = trunc i32 %shr7 to i16
  %call9 = call zeroext i16 @ntohs(i16 noundef zeroext %conv8) #12
  %22 = load ptr, ptr %key.addr, align 8
  %src_port10 = getelementptr inbounds %struct.ConnectionKey, ptr %22, i32 0, i32 2
  store i16 %call9, ptr %src_port10, align 1
  %23 = load i32, ptr %tmp_ports.addr, align 4
  %and11 = and i32 %23, 65535
  %conv12 = trunc i32 %and11 to i16
  %call13 = call zeroext i16 @ntohs(i16 noundef zeroext %conv12) #12
  %24 = load ptr, ptr %key.addr, align 8
  %dst_port14 = getelementptr inbounds %struct.ConnectionKey, ptr %24, i32 0, i32 3
  store i16 %call13, ptr %dst_port14, align 1
  br label %if.end

if.end:                                           ; preds = %if.else, %if.then
  ret void
}

; Function Attrs: nounwind sspstrong uwtable
define dso_local void @fill_connection_key(ptr noundef %pkt, ptr noundef %key, i1 noundef zeroext %reverse) #0 {
entry:
  %pkt.addr = alloca ptr, align 8
  %key.addr = alloca ptr, align 8
  %reverse.addr = alloca i8, align 1
  %tmp_ports = alloca i32, align 4
  store ptr %pkt, ptr %pkt.addr, align 8
  store ptr %key, ptr %key.addr, align 8
  %frombool = zext i1 %reverse to i8
  store i8 %frombool, ptr %reverse.addr, align 1
  store i32 0, ptr %tmp_ports, align 4
  %0 = load ptr, ptr %pkt.addr, align 8
  %1 = getelementptr inbounds %struct.Packet, ptr %0, i32 0, i32 1
  %2 = load ptr, ptr %1, align 8
  %ip_p = getelementptr inbounds %struct.ip, ptr %2, i32 0, i32 6
  %3 = load i8, ptr %ip_p, align 1
  %4 = load ptr, ptr %key.addr, align 8
  %ip_proto = getelementptr inbounds %struct.ConnectionKey, ptr %4, i32 0, i32 4
  store i8 %3, ptr %ip_proto, align 1
  %5 = load ptr, ptr %key.addr, align 8
  %ip_proto1 = getelementptr inbounds %struct.ConnectionKey, ptr %5, i32 0, i32 4
  %6 = load i8, ptr %ip_proto1, align 1
  %conv = zext i8 %6 to i32
  switch i32 %conv, label %sw.default [
    i32 6, label %sw.bb
    i32 17, label %sw.bb
    i32 33, label %sw.bb
    i32 50, label %sw.bb
    i32 132, label %sw.bb
    i32 136, label %sw.bb
    i32 51, label %sw.bb2
  ]

sw.bb:                                            ; preds = %entry, %entry, %entry, %entry, %entry, %entry
  %7 = load ptr, ptr %pkt.addr, align 8
  %transport_header = getelementptr inbounds %struct.Packet, ptr %7, i32 0, i32 2
  %8 = load ptr, ptr %transport_header, align 8
  %9 = load i32, ptr %8, align 4
  store i32 %9, ptr %tmp_ports, align 4
  br label %sw.epilog

sw.bb2:                                           ; preds = %entry
  %10 = load ptr, ptr %pkt.addr, align 8
  %transport_header3 = getelementptr inbounds %struct.Packet, ptr %10, i32 0, i32 2
  %11 = load ptr, ptr %transport_header3, align 8
  %add.ptr = getelementptr i8, ptr %11, i64 4
  %12 = load i32, ptr %add.ptr, align 4
  store i32 %12, ptr %tmp_ports, align 4
  br label %sw.epilog

sw.default:                                       ; preds = %entry
  br label %sw.epilog

sw.epilog:                                        ; preds = %sw.default, %sw.bb2, %sw.bb
  %13 = load i32, ptr %tmp_ports, align 4
  %14 = load ptr, ptr %key.addr, align 8
  %15 = load ptr, ptr %pkt.addr, align 8
  %16 = load i8, ptr %reverse.addr, align 1
  %tobool = trunc i8 %16 to i1
  call void @extract_ip_and_port(i32 noundef %13, ptr noundef %14, ptr noundef %15, i1 noundef zeroext %tobool)
  ret void
}