; Function Attrs: mustprogress nofree nosync nounwind sspstrong willreturn memory(read, argmem: readwrite, inaccessiblemem: none) uwtable
define dso_local void @fill_connection_key(ptr noundef readonly captures(none) %pkt, ptr noundef writeonly captures(none) initializes((0, 13)) %key, i1 noundef zeroext %reverse) local_unnamed_addr #5 {
entry:
  %0 = getelementptr inbounds nuw i8, ptr %pkt, i64 8
  %1 = load ptr, ptr %0, align 8
  %ip_p = getelementptr inbounds nuw i8, ptr %1, i64 9
  %2 = load i8, ptr %ip_p, align 1
  %ip_proto = getelementptr inbounds nuw i8, ptr %key, i64 12
  store i8 %2, ptr %ip_proto, align 1
  switch i8 %2, label %sw.epilog [
    i8 6, label %sw.bb
    i8 17, label %sw.bb
    i8 33, label %sw.bb
    i8 50, label %sw.bb
    i8 -124, label %sw.bb
    i8 -120, label %sw.bb
    i8 51, label %sw.bb2
  ]

sw.bb:                                            ; preds = %entry, %entry, %entry, %entry, %entry, %entry
  %transport_header = getelementptr inbounds nuw i8, ptr %pkt, i64 16
  %3 = load ptr, ptr %transport_header, align 8
  %4 = load i32, ptr %3, align 4
  br label %sw.epilog

sw.bb2:                                           ; preds = %entry
  %transport_header3 = getelementptr inbounds nuw i8, ptr %pkt, i64 16
  %5 = load ptr, ptr %transport_header3, align 8
  %add.ptr = getelementptr i8, ptr %5, i64 4
  %6 = load i32, ptr %add.ptr, align 4
  br label %sw.epilog

sw.epilog:                                        ; preds = %entry, %sw.bb2, %sw.bb
  %tmp_ports.0 = phi i32 [ 0, %entry ], [ %6, %sw.bb2 ], [ %4, %sw.bb ]
  %7 = load ptr, ptr %0, align 8
  br i1 %reverse, label %if.then.i, label %if.else.i

if.then.i:                                        ; preds = %sw.epilog
  %ip_dst.i = getelementptr inbounds nuw i8, ptr %7, i64 16
  %8 = load i32, ptr %ip_dst.i, align 1
  store i32 %8, ptr %key, align 1
  %9 = load ptr, ptr %0, align 8
  %ip_src.i = getelementptr inbounds nuw i8, ptr %9, i64 12
  %conv.i = trunc i32 %tmp_ports.0 to i16
  %call.i = tail call zeroext i16 @ntohs(i16 noundef zeroext %conv.i) #16
  %shr.i = lshr i32 %tmp_ports.0, 16
  br label %extract_ip_and_port.exit

if.else.i:                                        ; preds = %sw.epilog
  %ip_src4.i = getelementptr inbounds nuw i8, ptr %7, i64 12
  %10 = load i32, ptr %ip_src4.i, align 1
  store i32 %10, ptr %key, align 1
  %11 = load ptr, ptr %0, align 8
  %ip_dst6.i = getelementptr inbounds nuw i8, ptr %11, i64 16
  %shr7.i = lshr i32 %tmp_ports.0, 16
  %conv8.i = trunc nuw i32 %shr7.i to i16
  %call9.i = tail call zeroext i16 @ntohs(i16 noundef zeroext %conv8.i) #16
  br label %extract_ip_and_port.exit

extract_ip_and_port.exit:                         ; preds = %if.then.i, %if.else.i
  %tmp_ports.sink.i = phi i32 [ %tmp_ports.0, %if.else.i ], [ %shr.i, %if.then.i ]
  %.sink.in.i = phi ptr [ %ip_dst6.i, %if.else.i ], [ %ip_src.i, %if.then.i ]
  %call9.sink.i = phi i16 [ %call9.i, %if.else.i ], [ %call.i, %if.then.i ]
  %conv12.i = trunc i32 %tmp_ports.sink.i to i16
  %call13.i = tail call zeroext i16 @ntohs(i16 noundef zeroext %conv12.i) #16
  %.sink.i = load i32, ptr %.sink.in.i, align 1
  %12 = getelementptr inbounds nuw i8, ptr %key, i64 4
  store i32 %.sink.i, ptr %12, align 1
  %13 = getelementptr inbounds nuw i8, ptr %key, i64 8
  store i16 %call9.sink.i, ptr %13, align 1
  %14 = getelementptr inbounds nuw i8, ptr %key, i64 10
  store i16 %call13.i, ptr %14, align 1
  ret void
}